; Function Attrs: cold nounwind optsize uwtable
define internal range(i32 -12, 1) i32 @ff_tx_fft_init_naive_small_int32_c(ptr noundef captures(none) initializes((16, 24)) %0, ptr readnone captures(none) %1, i64 %2, ptr readnone captures(none) %3, i32 noundef %4, i32 %5, ptr readnone captures(none) %6) #0 {
  %8 = getelementptr inbounds nuw i8, ptr %0, i64 4
  %9 = load i32, ptr %8, align 4, !tbaa !73
  %.not = icmp eq i32 %9, 0
  %10 = sitofp i32 %4 to double
  %.v = select i1 %.not, double 0xC01921FB54442D18, double 0x401921FB54442D18
  %11 = fdiv nsz double %.v, %10
  %12 = mul nsw i32 %4, %4
  %13 = zext nneg i32 %12 to i64
  %14 = shl nuw nsw i64 %13, 3
  %15 = tail call noalias ptr @av_malloc(i64 noundef %14) #16
  %16 = getelementptr inbounds nuw i8, ptr %0, i64 16
  store ptr %15, ptr %16, align 8, !tbaa !26
  %.not23 = icmp eq ptr %15, null
  br i1 %.not23, label %.loopexit, label %.preheader26

.preheader26:                                     ; preds = %7
  %17 = icmp sgt i32 %4, 0
  br i1 %17, label %.preheader.lr.ph, label %.loopexit

.preheader.lr.ph:                                 ; preds = %.preheader26
  %wide.trip.count33 = zext nneg i32 %4 to i64
  br label %.lr.ph

.lr.ph:                                           ; preds = %._crit_edge, %.preheader.lr.ph
  %indvars.iv30 = phi i64 [ 0, %.preheader.lr.ph ], [ %indvars.iv.next31, %._crit_edge ]
  %18 = trunc nuw nsw i64 %indvars.iv30 to i32
  %19 = uitofp nneg i32 %18 to double
  %20 = fmul nsz double %11, %19
  br label %21

._crit_edge:                                      ; preds = %21
  %indvars.iv.next31 = add nuw nsw i64 %indvars.iv30, 1
  %exitcond34.not = icmp eq i64 %indvars.iv.next31, %wide.trip.count33
  br i1 %exitcond34.not, label %.loopexit, label %.lr.ph, !llvm.loop !78

21:                                               ; preds = %.lr.ph, %21
  %indvars.iv = phi i64 [ 0, %.lr.ph ], [ %indvars.iv.next, %21 ]
  %22 = trunc nuw nsw i64 %indvars.iv to i32
  %23 = uitofp nneg i32 %22 to double
  %24 = fmul nsz double %20, %23
  %25 = mul nuw nsw i64 %indvars.iv, %indvars.iv30
  %26 = getelementptr inbounds nuw %struct.AVComplexInt32, ptr %15, i64 %25
  %27 = tail call nsz double @llvm.cos.f64(double %24)
  %28 = fmul nsz double %27, 0x41E0000000000000
  %29 = fptrunc nsz double %28 to float
  %30 = tail call i64 @llvm.llrint.i64.f32(float %29)
  %31 = tail call i64 @llvm.smax.i64(i64 %30, i64 -2147483648)
  %.0.i25 = tail call i64 @llvm.smin.i64(i64 %31, i64 2147483647)
  %32 = trunc nsw i64 %.0.i25 to i32
  %33 = tail call nsz double @llvm.sin.f64(double %24)
  %34 = fmul nsz double %33, 0x41E0000000000000
  %35 = fptrunc nsz double %34 to float
  %36 = tail call i64 @llvm.llrint.i64.f32(float %35)
  %37 = tail call i64 @llvm.smax.i64(i64 %36, i64 -2147483648)
  %.0.i = tail call i64 @llvm.smin.i64(i64 %37, i64 2147483647)
  %38 = trunc nsw i64 %.0.i to i32
  store i32 %32, ptr %26, align 4, !tbaa !10
  %.sroa.2.0..sroa_idx = getelementptr inbounds nuw i8, ptr %26, i64 4
  store i32 %38, ptr %.sroa.2.0..sroa_idx, align 4, !tbaa !10
  %indvars.iv.next = add nuw nsw i64 %indvars.iv, 1
  %exitcond.not = icmp eq i64 %indvars.iv.next, %wide.trip.count33
  br i1 %exitcond.not, label %._crit_edge, label %21, !llvm.loop !79

.loopexit:                                        ; preds = %._crit_edge, %.preheader26, %7
  %.0 = phi i32 [ -12, %7 ], [ 0, %.preheader26 ], [ 0, %._crit_edge ]
  ret i32 %.0
}